; Function Attrs: mustprogress nofree norecurse nosync nounwind willreturn memory(readwrite, argmem: write, inaccessiblemem: none) uwtable
define hidden void @_ZN12XStatCounterC2EPKcS1_PFv15LogTargetHandleRK12XStatSamplerRK19XStatSamplerHistoryE(ptr noundef nonnull align 8 dereferenceable(72) %0, ptr noundef %1, ptr noundef %2, ptr noundef %3) unnamed_addr #3 align 2 {
  %5 = load i32, ptr @_ZN18XStatIterableValueI12XStatCounterE6_countE, align 4
  %6 = add i32 %5, 1
  store i32 %6, ptr @_ZN18XStatIterableValueI12XStatCounterE6_countE, align 4
  store ptr %1, ptr %0, align 8
  %7 = getelementptr inbounds i8, ptr %0, i64 8
  store ptr %2, ptr %7, align 8
  %8 = getelementptr inbounds i8, ptr %0, i64 16
  store i32 %5, ptr %8, align 8
  %9 = getelementptr inbounds i8, ptr %0, i64 20
  %10 = load i32, ptr @_ZN10XStatValue11_cpu_offsetE, align 4
  store i32 %10, ptr %9, align 4
  %11 = add i32 %10, 8
  %12 = getelementptr inbounds i8, ptr %0, i64 24
  %13 = load ptr, ptr @_ZN18XStatIterableValueI12XStatCounterE6_firstE, align 8
  store ptr %0, ptr @_ZN18XStatIterableValueI12XStatCounterE6_firstE, align 8
  store ptr %13, ptr %12, align 8
  %14 = getelementptr inbounds i8, ptr %0, i64 32
  %15 = load i32, ptr @_ZN18XStatIterableValueI12XStatSamplerE6_countE, align 4
  %16 = add i32 %15, 1
  store i32 %16, ptr @_ZN18XStatIterableValueI12XStatSamplerE6_countE, align 4
  store ptr %1, ptr %14, align 8
  %17 = getelementptr inbounds i8, ptr %0, i64 40
  store ptr %2, ptr %17, align 8
  %18 = getelementptr inbounds i8, ptr %0, i64 48
  store i32 %15, ptr %18, align 8
  %19 = getelementptr inbounds i8, ptr %0, i64 52
  store i32 %11, ptr %19, align 4
  %20 = add i32 %10, 32
  store i32 %20, ptr @_ZN10XStatValue11_cpu_offsetE, align 4
  %21 = getelementptr inbounds i8, ptr %0, i64 56
  %22 = load ptr, ptr @_ZN18XStatIterableValueI12XStatSamplerE6_firstE, align 8
  store ptr %14, ptr @_ZN18XStatIterableValueI12XStatSamplerE6_firstE, align 8
  store ptr %22, ptr %21, align 8
  %23 = getelementptr inbounds i8, ptr %0, i64 64
  store ptr %3, ptr %23, align 8
  ret void
}